; Function Attrs: mustprogress nofree norecurse nosync nounwind willreturn memory(argmem: readwrite) uwtable
define void @lv_indev_set_button_points(ptr noundef captures(address_is_null) %0, ptr noundef %1) local_unnamed_addr #4 {
  %.not = icmp eq ptr %0, null
  br i1 %.not, label %8, label %3

3:                                                ; preds = %2
  %4 = load i32, ptr %0, align 8, !tbaa !23
  %5 = icmp eq i32 %4, 3
  br i1 %5, label %6, label %8

6:                                                ; preds = %3
  %7 = getelementptr inbounds nuw i8, ptr %0, i64 256
  store ptr %1, ptr %7, align 8, !tbaa !114
  br label %8

8:                                                ; preds = %6, %3, %2
  ret void
}